target datalayout = "e-m:e-p270:32:32-p271:32:32-p272:64:64-i64:64-i128:128-f80:128-n8:16:32:64-S128"
target triple = "x86_64-pc-linux-gnu"

%"class.std::__cxx11::basic_string" = type { %"struct.std::__cxx11::basic_string<char>::_Alloc_hider", i64, %union.anon }
%"struct.std::__cxx11::basic_string<char>::_Alloc_hider" = type { ptr }
%union.anon = type { i64, [8 x i8] }
%class.DfgGraph = type { %class.V3List, %class.V3List.0, %class.V3List.1, i64, i32, i32, ptr, %"class.std::__cxx11::basic_string" }
%class.V3List = type { ptr, ptr }
%class.V3List.0 = type { ptr, ptr }
%class.V3List.1 = type { ptr, ptr }
%class.DfgVertex = type { ptr, %class.V3ListLinks, ptr, ptr, ptr, ptr, %class.VDfgType, i32, ptr }
%class.V3ListLinks = type { ptr, ptr }
%class.VDfgType = type { i16 }

; Function Attrs: mustprogress nounwind uwtable
define linkonce_odr dso_local noundef zeroext i16 @_ZNK8VDfgTypecvNS_2enEEv(ptr noundef nonnull align 2 dereferenceable(2) %0) #5 comdat align 2 {
  %2 = alloca ptr, align 8
  store ptr %0, ptr %2, align 8
  %3 = load ptr, ptr %2, align 8
  %4 = getelementptr inbounds %class.VDfgType, ptr %3, i32 0, i32 0
  %5 = load i16, ptr %4, align 2
  ret i16 %5
}

; Function Attrs: mustprogress nounwind uwtable
define linkonce_odr dso_local noundef zeroext i1 @_Zeq8VDfgTypeNS_2enE(i16 %0, i16 noundef zeroext %1) #5 comdat {
  %3 = alloca %class.VDfgType, align 2
  %4 = alloca i16, align 2
  %5 = getelementptr inbounds %class.VDfgType, ptr %3, i32 0, i32 0
  store i16 %0, ptr %5, align 2
  store i16 %1, ptr %4, align 2
  %6 = getelementptr inbounds %class.VDfgType, ptr %3, i32 0, i32 0
  %7 = load i16, ptr %6, align 2
  %8 = zext i16 %7 to i32
  %9 = load i16, ptr %4, align 2
  %10 = zext i16 %9 to i32
  %11 = icmp eq i32 %8, %10
  ret i1 %11
}

; Function Attrs: mustprogress nounwind uwtable
define linkonce_odr dso_local i16 @_ZNK9DfgVertex4typeEv(ptr noundef nonnull align 8 dereferenceable(72) %0) #5 comdat align 2 {
  %2 = alloca %class.VDfgType, align 2
  %3 = alloca ptr, align 8
  store ptr %0, ptr %3, align 8
  %4 = load ptr, ptr %3, align 8
  %5 = getelementptr inbounds %class.DfgVertex, ptr %4, i32 0, i32 6
  call void @llvm.memcpy.p0.p0.i64(ptr align 2 %2, ptr align 8 %5, i64 2, i1 false)
  %6 = getelementptr inbounds %class.VDfgType, ptr %2, i32 0, i32 0
  %7 = load i16, ptr %6, align 2
  ret i16 %7
}

; Function Attrs: mustprogress nounwind uwtable
define linkonce_odr dso_local noundef zeroext i1 @_ZN9DfgVertex15privateTypeTestI12DfgVertexVarEEbPKS_(ptr noundef %0) #5 comdat align 2 {
  %2 = alloca ptr, align 8
  %3 = alloca %class.VDfgType, align 2
  %4 = alloca %class.VDfgType, align 2
  store ptr %0, ptr %2, align 8
  %5 = load ptr, ptr %2, align 8
  %6 = call i16 @_ZNK9DfgVertex4typeEv(ptr noundef nonnull align 8 dereferenceable(72) %5)
  %7 = getelementptr inbounds %class.VDfgType, ptr %3, i32 0, i32 0
  store i16 %6, ptr %7, align 2
  %8 = call noundef zeroext i16 @_ZNK8VDfgTypecvNS_2enEEv(ptr noundef nonnull align 2 dereferenceable(2) %3)
  %9 = zext i16 %8 to i32
  %10 = icmp sge i32 %9, 152
  br i1 %10, label %11, label %18

11:                                               ; preds = %1
  %12 = load ptr, ptr %2, align 8
  %13 = call i16 @_ZNK9DfgVertex4typeEv(ptr noundef nonnull align 8 dereferenceable(72) %12)
  %14 = getelementptr inbounds %class.VDfgType, ptr %4, i32 0, i32 0
  store i16 %13, ptr %14, align 2
  %15 = call noundef zeroext i16 @_ZNK8VDfgTypecvNS_2enEEv(ptr noundef nonnull align 2 dereferenceable(2) %4)
  %16 = zext i16 %15 to i32
  %17 = icmp sle i32 %16, 153
  br label %18

18:                                               ; preds = %11, %1
  %19 = phi i1 [ false, %1 ], [ %17, %11 ]
  ret i1 %19
}

; Function Attrs: mustprogress uwtable
define linkonce_odr dso_local noundef zeroext i1 @_ZN9DfgVertex15privateTypeTestI8DfgConstEEbPKS_(ptr noundef %0) #4 comdat align 2 {
  %2 = alloca ptr, align 8
  %3 = alloca %class.VDfgType, align 2
  store ptr %0, ptr %2, align 8
  %4 = load ptr, ptr %2, align 8
  %5 = call i16 @_ZNK9DfgVertex4typeEv(ptr noundef nonnull align 8 dereferenceable(72) %4)
  %6 = getelementptr inbounds %class.VDfgType, ptr %3, i32 0, i32 0
  store i16 %5, ptr %6, align 2
  %7 = getelementptr inbounds %class.VDfgType, ptr %3, i32 0, i32 0
  %8 = load i16, ptr %7, align 2
  %9 = call noundef zeroext i1 @_Zeq8VDfgTypeNS_2enE(i16 %8, i16 noundef zeroext 0)
  ret i1 %9
}

; Function Attrs: mustprogress uwtable
define linkonce_odr dso_local noundef zeroext i1 @_ZNK9DfgVertex2isI12DfgVertexVarEEbv(ptr noundef nonnull align 8 dereferenceable(72) %0) #4 comdat align 2 {
  %2 = alloca ptr, align 8
  store ptr %0, ptr %2, align 8
  %3 = load ptr, ptr %2, align 8
  %4 = call noundef zeroext i1 @_ZN9DfgVertex15privateTypeTestI12DfgVertexVarEEbPKS_(ptr noundef %3)
  ret i1 %4
}

; Function Attrs: mustprogress nounwind uwtable
define linkonce_odr dso_local noundef nonnull align 8 dereferenceable(16) ptr @_ZN9DfgVertex5linksEv(ptr noundef nonnull align 8 dereferenceable(72) %0) #5 comdat align 2 {
  %2 = alloca ptr, align 8
  store ptr %0, ptr %2, align 8
  %3 = load ptr, ptr %2, align 8
  %4 = getelementptr inbounds %class.DfgVertex, ptr %3, i32 0, i32 1
  ret ptr %4
}

; Function Attrs: mustprogress uwtable
define linkonce_odr dso_local noundef zeroext i1 @_ZNK9DfgVertex2isI8DfgConstEEbv(ptr noundef nonnull align 8 dereferenceable(72) %0) #4 comdat align 2 {
  %2 = alloca ptr, align 8
  store ptr %0, ptr %2, align 8
  %3 = load ptr, ptr %2, align 8
  %4 = call noundef zeroext i1 @_ZN9DfgVertex15privateTypeTestI8DfgConstEEbPKS_(ptr noundef %3)
  ret i1 %4
}

; Function Attrs: mustprogress uwtable
define linkonce_odr dso_local void @_ZN6V3ListI9DfgVertexXadL_ZNS0_5linksEvEES0_E8linkBackEPKS0_(ptr noundef nonnull align 8 dereferenceable(16) %0, ptr noundef %1) #4 comdat align 2 {
  %3 = alloca ptr, align 8
  %4 = alloca ptr, align 8
  %5 = alloca ptr, align 8
  %6 = alloca ptr, align 8
  %7 = alloca ptr, align 8
  store ptr %0, ptr %5, align 8
  store ptr %1, ptr %6, align 8
  %8 = load ptr, ptr %5, align 8
  %9 = load ptr, ptr %6, align 8
  store ptr %9, ptr %3, align 8
  %10 = load ptr, ptr %3, align 8
  %11 = call noundef nonnull align 8 dereferenceable(16) ptr @_ZN9DfgVertex5linksEv(ptr noundef nonnull align 8 dereferenceable(72) %10)
  store ptr %11, ptr %7, align 8
  %12 = load ptr, ptr %7, align 8
  %13 = getelementptr inbounds %class.V3ListLinks, ptr %12, i32 0, i32 0
  store ptr null, ptr %13, align 8
  %14 = getelementptr inbounds %class.V3List.1, ptr %8, i32 0, i32 1
  %15 = load ptr, ptr %14, align 8
  %16 = load ptr, ptr %7, align 8
  %17 = getelementptr inbounds %class.V3ListLinks, ptr %16, i32 0, i32 1
  store ptr %15, ptr %17, align 8
  %18 = getelementptr inbounds %class.V3List.1, ptr %8, i32 0, i32 1
  %19 = load ptr, ptr %18, align 8
  %20 = icmp ne ptr %19, null
  br i1 %20, label %21, label %28

21:                                               ; preds = %2
  %22 = load ptr, ptr %6, align 8
  %23 = getelementptr inbounds %class.V3List.1, ptr %8, i32 0, i32 1
  %24 = load ptr, ptr %23, align 8
  store ptr %24, ptr %4, align 8
  %25 = load ptr, ptr %4, align 8
  %26 = call noundef nonnull align 8 dereferenceable(16) ptr @_ZN9DfgVertex5linksEv(ptr noundef nonnull align 8 dereferenceable(72) %25)
  %27 = getelementptr inbounds %class.V3ListLinks, ptr %26, i32 0, i32 0
  store ptr %22, ptr %27, align 8
  br label %28

28:                                               ; preds = %21, %2
  %29 = load ptr, ptr %6, align 8
  %30 = getelementptr inbounds %class.V3List.1, ptr %8, i32 0, i32 1
  store ptr %29, ptr %30, align 8
  %31 = getelementptr inbounds %class.V3List.1, ptr %8, i32 0, i32 0
  %32 = load ptr, ptr %31, align 8
  %33 = icmp ne ptr %32, null
  br i1 %33, label %38, label %34

34:                                               ; preds = %28
  %35 = getelementptr inbounds %class.V3List.1, ptr %8, i32 0, i32 1
  %36 = load ptr, ptr %35, align 8
  %37 = getelementptr inbounds %class.V3List.1, ptr %8, i32 0, i32 0
  store ptr %36, ptr %37, align 8
  br label %38

38:                                               ; preds = %34, %28
  ret void
}

; Function Attrs: mustprogress uwtable
define linkonce_odr dso_local void @_ZN6V3ListI9DfgVertexXadL_ZNS0_5linksEvEE12DfgVertexVarE8linkBackEPKS1_(ptr noundef nonnull align 8 dereferenceable(16) %0, ptr noundef %1) #4 comdat align 2 {
  %3 = alloca ptr, align 8
  %4 = alloca ptr, align 8
  %5 = alloca ptr, align 8
  %6 = alloca ptr, align 8
  %7 = alloca ptr, align 8
  store ptr %0, ptr %5, align 8
  store ptr %1, ptr %6, align 8
  %8 = load ptr, ptr %5, align 8
  %9 = load ptr, ptr %6, align 8
  store ptr %9, ptr %3, align 8
  %10 = load ptr, ptr %3, align 8
  %11 = call noundef nonnull align 8 dereferenceable(16) ptr @_ZN9DfgVertex5linksEv(ptr noundef nonnull align 8 dereferenceable(72) %10)
  store ptr %11, ptr %7, align 8
  %12 = load ptr, ptr %7, align 8
  %13 = getelementptr inbounds %class.V3ListLinks, ptr %12, i32 0, i32 0
  store ptr null, ptr %13, align 8
  %14 = getelementptr inbounds %class.V3List, ptr %8, i32 0, i32 1
  %15 = load ptr, ptr %14, align 8
  %16 = load ptr, ptr %7, align 8
  %17 = getelementptr inbounds %class.V3ListLinks, ptr %16, i32 0, i32 1
  store ptr %15, ptr %17, align 8
  %18 = getelementptr inbounds %class.V3List, ptr %8, i32 0, i32 1
  %19 = load ptr, ptr %18, align 8
  %20 = icmp ne ptr %19, null
  br i1 %20, label %21, label %28

21:                                               ; preds = %2
  %22 = load ptr, ptr %6, align 8
  %23 = getelementptr inbounds %class.V3List, ptr %8, i32 0, i32 1
  %24 = load ptr, ptr %23, align 8
  store ptr %24, ptr %4, align 8
  %25 = load ptr, ptr %4, align 8
  %26 = call noundef nonnull align 8 dereferenceable(16) ptr @_ZN9DfgVertex5linksEv(ptr noundef nonnull align 8 dereferenceable(72) %25)
  %27 = getelementptr inbounds %class.V3ListLinks, ptr %26, i32 0, i32 0
  store ptr %22, ptr %27, align 8
  br label %28

28:                                               ; preds = %21, %2
  %29 = load ptr, ptr %6, align 8
  %30 = getelementptr inbounds %class.V3List, ptr %8, i32 0, i32 1
  store ptr %29, ptr %30, align 8
  %31 = getelementptr inbounds %class.V3List, ptr %8, i32 0, i32 0
  %32 = load ptr, ptr %31, align 8
  %33 = icmp ne ptr %32, null
  br i1 %33, label %38, label %34

34:                                               ; preds = %28
  %35 = getelementptr inbounds %class.V3List, ptr %8, i32 0, i32 1
  %36 = load ptr, ptr %35, align 8
  %37 = getelementptr inbounds %class.V3List, ptr %8, i32 0, i32 0
  store ptr %36, ptr %37, align 8
  br label %38

38:                                               ; preds = %34, %28
  ret void
}

; Function Attrs: mustprogress uwtable
define linkonce_odr dso_local noundef ptr @_ZN9DfgVertex4castI12DfgVertexVarEEPT_v(ptr noundef nonnull align 8 dereferenceable(72) %0) #4 comdat align 2 {
  %2 = alloca ptr, align 8
  store ptr %0, ptr %2, align 8
  %3 = load ptr, ptr %2, align 8
  %4 = call noundef zeroext i1 @_ZNK9DfgVertex2isI12DfgVertexVarEEbv(ptr noundef nonnull align 8 dereferenceable(72) %3)
  br i1 %4, label %5, label %6

5:                                                ; preds = %1
  br label %7

6:                                                ; preds = %1
  br label %7

7:                                                ; preds = %6, %5
  %8 = phi ptr [ %3, %5 ], [ null, %6 ]
  ret ptr %8
}

; Function Attrs: mustprogress uwtable
define linkonce_odr dso_local void @_ZN6V3ListI9DfgVertexXadL_ZNS0_5linksEvEE8DfgConstE8linkBackEPKS1_(ptr noundef nonnull align 8 dereferenceable(16) %0, ptr noundef %1) #4 comdat align 2 {
  %3 = alloca ptr, align 8
  %4 = alloca ptr, align 8
  %5 = alloca ptr, align 8
  %6 = alloca ptr, align 8
  %7 = alloca ptr, align 8
  store ptr %0, ptr %5, align 8
  store ptr %1, ptr %6, align 8
  %8 = load ptr, ptr %5, align 8
  %9 = load ptr, ptr %6, align 8
  store ptr %9, ptr %3, align 8
  %10 = load ptr, ptr %3, align 8
  %11 = call noundef nonnull align 8 dereferenceable(16) ptr @_ZN9DfgVertex5linksEv(ptr noundef nonnull align 8 dereferenceable(72) %10)
  store ptr %11, ptr %7, align 8
  %12 = load ptr, ptr %7, align 8
  %13 = getelementptr inbounds %class.V3ListLinks, ptr %12, i32 0, i32 0
  store ptr null, ptr %13, align 8
  %14 = getelementptr inbounds %class.V3List.0, ptr %8, i32 0, i32 1
  %15 = load ptr, ptr %14, align 8
  %16 = load ptr, ptr %7, align 8
  %17 = getelementptr inbounds %class.V3ListLinks, ptr %16, i32 0, i32 1
  store ptr %15, ptr %17, align 8
  %18 = getelementptr inbounds %class.V3List.0, ptr %8, i32 0, i32 1
  %19 = load ptr, ptr %18, align 8
  %20 = icmp ne ptr %19, null
  br i1 %20, label %21, label %28

21:                                               ; preds = %2
  %22 = load ptr, ptr %6, align 8
  %23 = getelementptr inbounds %class.V3List.0, ptr %8, i32 0, i32 1
  %24 = load ptr, ptr %23, align 8
  store ptr %24, ptr %4, align 8
  %25 = load ptr, ptr %4, align 8
  %26 = call noundef nonnull align 8 dereferenceable(16) ptr @_ZN9DfgVertex5linksEv(ptr noundef nonnull align 8 dereferenceable(72) %25)
  %27 = getelementptr inbounds %class.V3ListLinks, ptr %26, i32 0, i32 0
  store ptr %22, ptr %27, align 8
  br label %28

28:                                               ; preds = %21, %2
  %29 = load ptr, ptr %6, align 8
  %30 = getelementptr inbounds %class.V3List.0, ptr %8, i32 0, i32 1
  store ptr %29, ptr %30, align 8
  %31 = getelementptr inbounds %class.V3List.0, ptr %8, i32 0, i32 0
  %32 = load ptr, ptr %31, align 8
  %33 = icmp ne ptr %32, null
  br i1 %33, label %38, label %34

34:                                               ; preds = %28
  %35 = getelementptr inbounds %class.V3List.0, ptr %8, i32 0, i32 1
  %36 = load ptr, ptr %35, align 8
  %37 = getelementptr inbounds %class.V3List.0, ptr %8, i32 0, i32 0
  store ptr %36, ptr %37, align 8
  br label %38

38:                                               ; preds = %34, %28
  ret void
}

; Function Attrs: mustprogress uwtable
define linkonce_odr dso_local noundef ptr @_ZN9DfgVertex4castI8DfgConstEEPT_v(ptr noundef nonnull align 8 dereferenceable(72) %0) #4 comdat align 2 {
  %2 = alloca ptr, align 8
  store ptr %0, ptr %2, align 8
  %3 = load ptr, ptr %2, align 8
  %4 = call noundef zeroext i1 @_ZNK9DfgVertex2isI8DfgConstEEbv(ptr noundef nonnull align 8 dereferenceable(72) %3)
  br i1 %4, label %5, label %6

5:                                                ; preds = %1
  br label %7

6:                                                ; preds = %1
  br label %7

7:                                                ; preds = %6, %5
  %8 = phi ptr [ %3, %5 ], [ null, %6 ]
  ret ptr %8
}

; Function Attrs: mustprogress nounwind uwtable
define linkonce_odr dso_local void @_ZN11V3ListLinksI9DfgVertexED2Ev(ptr noundef nonnull align 8 dereferenceable(16) %0) unnamed_addr #5 comdat align 2 {
  %2 = alloca ptr, align 8
  store ptr %0, ptr %2, align 8
  ret void
}

; Function Attrs: mustprogress uwtable
define linkonce_odr dso_local void @_ZN8DfgGraph9addVertexER9DfgVertex(ptr noundef nonnull align 8 dereferenceable(104) %0, ptr noundef nonnull align 8 dereferenceable(72) %1) #4 comdat align 2 {
  %3 = alloca ptr, align 8
  %4 = alloca ptr, align 8
  %5 = alloca ptr, align 8
  %6 = alloca ptr, align 8
  store ptr %0, ptr %3, align 8
  store ptr %1, ptr %4, align 8
  %7 = load ptr, ptr %3, align 8
  %8 = getelementptr inbounds %class.DfgGraph, ptr %7, i32 0, i32 3
  %9 = load i64, ptr %8, align 8
  %10 = add i64 %9, 1
  store i64 %10, ptr %8, align 8
  %11 = load ptr, ptr %4, align 8
  %12 = call noundef ptr @_ZN9DfgVertex4castI8DfgConstEEPT_v(ptr noundef nonnull align 8 dereferenceable(72) %11)
  store ptr %12, ptr %5, align 8
  %13 = load ptr, ptr %5, align 8
  %14 = icmp ne ptr %13, null
  br i1 %14, label %15, label %18

15:                                               ; preds = %2
  %16 = getelementptr inbounds %class.DfgGraph, ptr %7, i32 0, i32 1
  %17 = load ptr, ptr %5, align 8
  call void @_ZN6V3ListI9DfgVertexXadL_ZNS0_5linksEvEE8DfgConstE8linkBackEPKS1_(ptr noundef nonnull align 8 dereferenceable(16) %16, ptr noundef %17)
  br label %30

18:                                               ; preds = %2
  %19 = load ptr, ptr %4, align 8
  %20 = call noundef ptr @_ZN9DfgVertex4castI12DfgVertexVarEEPT_v(ptr noundef nonnull align 8 dereferenceable(72) %19)
  store ptr %20, ptr %6, align 8
  %21 = load ptr, ptr %6, align 8
  %22 = icmp ne ptr %21, null
  br i1 %22, label %23, label %26

23:                                               ; preds = %18
  %24 = getelementptr inbounds %class.DfgGraph, ptr %7, i32 0, i32 0
  %25 = load ptr, ptr %6, align 8
  call void @_ZN6V3ListI9DfgVertexXadL_ZNS0_5linksEvEE12DfgVertexVarE8linkBackEPKS1_(ptr noundef nonnull align 8 dereferenceable(16) %24, ptr noundef %25)
  br label %29

26:                                               ; preds = %18
  %27 = getelementptr inbounds %class.DfgGraph, ptr %7, i32 0, i32 2
  %28 = load ptr, ptr %4, align 8
  call void @_ZN6V3ListI9DfgVertexXadL_ZNS0_5linksEvEES0_E8linkBackEPKS0_(ptr noundef nonnull align 8 dereferenceable(16) %27, ptr noundef %28)
  br label %29

29:                                               ; preds = %26, %23
  br label %30

30:                                               ; preds = %29, %15
  %31 = load ptr, ptr %4, align 8
  %32 = getelementptr inbounds %class.DfgVertex, ptr %31, i32 0, i32 7
  store i32 0, ptr %32, align 4
  %33 = load ptr, ptr %4, align 8
  %34 = getelementptr inbounds %class.DfgVertex, ptr %33, i32 0, i32 5
  store ptr %7, ptr %34, align 8
  ret void
}

; Function Attrs: mustprogress nounwind uwtable
define linkonce_odr dso_local void @_ZN11V3ListLinksI9DfgVertexEC2Ev(ptr noundef nonnull align 8 dereferenceable(16) %0) unnamed_addr #5 comdat align 2 {
  %2 = alloca ptr, align 8
  store ptr %0, ptr %2, align 8
  %3 = load ptr, ptr %2, align 8
  %4 = getelementptr inbounds %class.V3ListLinks, ptr %3, i32 0, i32 0
  store ptr null, ptr %4, align 8
  %5 = getelementptr inbounds %class.V3ListLinks, ptr %3, i32 0, i32 1
  store ptr null, ptr %5, align 8
  ret void
}

; Function Attrs: mustprogress uwtable
define dso_local void @_ZN9DfgVertexC2ER8DfgGraph8VDfgTypeP8FileLineP12AstNodeDType(ptr noundef nonnull align 8 dereferenceable(72) %0, ptr noundef nonnull align 8 dereferenceable(104) %1, i16 %2, ptr noundef %3, ptr noundef %4) unnamed_addr #4 align 2 personality ptr @__gxx_personality_v0 {
  %6 = alloca %class.VDfgType, align 2
  %7 = alloca ptr, align 8
  %8 = alloca ptr, align 8
  %9 = alloca ptr, align 8
  %10 = alloca ptr, align 8
  %11 = alloca ptr, align 8
  %12 = alloca i32, align 4
  %13 = getelementptr inbounds %class.VDfgType, ptr %6, i32 0, i32 0
  store i16 %2, ptr %13, align 2
  store ptr %0, ptr %7, align 8
  store ptr %1, ptr %8, align 8
  store ptr %3, ptr %9, align 8
  store ptr %4, ptr %10, align 8
  %14 = load ptr, ptr %7, align 8
  store ptr getelementptr inbounds inrange(-16, 64) ({ [10 x ptr] }, ptr @_ZTV9DfgVertex, i32 0, i32 0, i32 2), ptr %14, align 8
  %15 = getelementptr inbounds %class.DfgVertex, ptr %14, i32 0, i32 1
  call void @_ZN11V3ListLinksI9DfgVertexEC2Ev(ptr noundef nonnull align 8 dereferenceable(16) %15) #3
  %16 = getelementptr inbounds %class.DfgVertex, ptr %14, i32 0, i32 2
  store ptr null, ptr %16, align 8
  %17 = getelementptr inbounds %class.DfgVertex, ptr %14, i32 0, i32 3
  %18 = load ptr, ptr %9, align 8
  store ptr %18, ptr %17, align 8
  %19 = getelementptr inbounds %class.DfgVertex, ptr %14, i32 0, i32 4
  %20 = load ptr, ptr %10, align 8
  store ptr %20, ptr %19, align 8
  %21 = getelementptr inbounds %class.DfgVertex, ptr %14, i32 0, i32 6
  call void @llvm.memcpy.p0.p0.i64(ptr align 8 %21, ptr align 2 %6, i64 2, i1 false)
  %22 = getelementptr inbounds %class.DfgVertex, ptr %14, i32 0, i32 7
  store i32 0, ptr %22, align 4
  %23 = load ptr, ptr %8, align 8
  invoke void @_ZN8DfgGraph9addVertexER9DfgVertex(ptr noundef nonnull align 8 dereferenceable(104) %23, ptr noundef nonnull align 8 dereferenceable(72) %14)
          to label %24 unwind label %25

24:                                               ; preds = %5
  ret void

25:                                               ; preds = %5
  %26 = landingpad { ptr, i32 }
          cleanup
  %27 = extractvalue { ptr, i32 } %26, 0
  store ptr %27, ptr %11, align 8
  %28 = extractvalue { ptr, i32 } %26, 1
  store i32 %28, ptr %12, align 4
  call void @_ZN11V3ListLinksI9DfgVertexED2Ev(ptr noundef nonnull align 8 dereferenceable(16) %15) #3
  br label %29

29:                                               ; preds = %25
  %30 = load ptr, ptr %11, align 8
  %31 = load i32, ptr %12, align 4
  %32 = insertvalue { ptr, i32 } poison, ptr %30, 0
  %33 = insertvalue { ptr, i32 } %32, i32 %31, 1
  resume { ptr, i32 } %33
}