; Function Attrs: mustprogress nofree norecurse nosync nounwind willreturn memory(write, argmem: readwrite, inaccessiblemem: none) uwtable
define dso_local void @_ZN9DfgVertexC2ER8DfgGraph8VDfgTypeP8FileLineP12AstNodeDType(ptr noundef nonnull align 8 dereferenceable(72) %0, ptr noundef nonnull align 8 dereferenceable(104) %1, i16 %2, ptr noundef %3, ptr noundef %4) unnamed_addr #9 align 2 personality ptr @__gxx_personality_v0 {
  store ptr getelementptr inbounds inrange(-16, 64) ({ [10 x ptr] }, ptr @_ZTV9DfgVertex, i64 0, i32 0, i64 2), ptr %0, align 8
  %6 = getelementptr inbounds i8, ptr %0, i64 8
  %7 = getelementptr inbounds i8, ptr %0, i64 32
  tail call void @llvm.memset.p0.i64(ptr noundef nonnull align 8 dereferenceable(24) %6, i8 0, i64 24, i1 false)
  store ptr %3, ptr %7, align 8
  %8 = getelementptr inbounds i8, ptr %0, i64 40
  store ptr %4, ptr %8, align 8
  %9 = getelementptr inbounds i8, ptr %0, i64 56
  store i16 %2, ptr %9, align 8
  %10 = getelementptr inbounds i8, ptr %0, i64 60
  store i32 0, ptr %10, align 4
  %11 = getelementptr inbounds i8, ptr %1, i64 48
  %12 = load i64, ptr %11, align 8
  %13 = add i64 %12, 1
  store i64 %13, ptr %11, align 8
  %.sroa.0.0.copyload.i.i.i.i.i = load i16, ptr %9, align 8
  %.not.i = icmp eq i16 %.sroa.0.0.copyload.i.i.i.i.i, 0
  br i1 %.not.i, label %14, label %23

14:                                               ; preds = %5
  %15 = getelementptr inbounds i8, ptr %1, i64 16
  store ptr null, ptr %6, align 8
  %16 = getelementptr inbounds i8, ptr %1, i64 24
  %17 = load ptr, ptr %16, align 8
  %18 = getelementptr inbounds i8, ptr %0, i64 16
  store ptr %17, ptr %18, align 8
  %.not.i.i = icmp eq ptr %17, null
  br i1 %.not.i.i, label %21, label %19

19:                                               ; preds = %14
  %20 = getelementptr inbounds i8, ptr %17, i64 8
  store ptr %0, ptr %20, align 8
  br label %21

21:                                               ; preds = %19, %14
  store ptr %0, ptr %16, align 8
  %22 = load ptr, ptr %15, align 8
  %.not8.i.i = icmp eq ptr %22, null
  br i1 %.not8.i.i, label %_ZN6V3ListI9DfgVertexXadL_ZNS0_5linksEvEE8DfgConstE8linkBackEPKS1_.exit.sink.split.i, label %42

23:                                               ; preds = %5
  %24 = and i16 %.sroa.0.0.copyload.i.i.i.i.i, -2
  %spec.select.i.i.i.not.i = icmp eq i16 %24, 152
  br i1 %spec.select.i.i.i.not.i, label %25, label %33

25:                                               ; preds = %23
  store ptr null, ptr %6, align 8
  %26 = getelementptr inbounds i8, ptr %1, i64 8
  %27 = load ptr, ptr %26, align 8
  %28 = getelementptr inbounds i8, ptr %0, i64 16
  store ptr %27, ptr %28, align 8
  %.not.i14.i = icmp eq ptr %27, null
  br i1 %.not.i14.i, label %31, label %29

29:                                               ; preds = %25
  %30 = getelementptr inbounds i8, ptr %27, i64 8
  store ptr %0, ptr %30, align 8
  br label %31

31:                                               ; preds = %29, %25
  store ptr %0, ptr %26, align 8
  %32 = load ptr, ptr %1, align 8
  %.not8.i15.i = icmp eq ptr %32, null
  br i1 %.not8.i15.i, label %_ZN6V3ListI9DfgVertexXadL_ZNS0_5linksEvEE8DfgConstE8linkBackEPKS1_.exit.sink.split.i, label %42

33:                                               ; preds = %23
  %34 = getelementptr inbounds i8, ptr %1, i64 32
  store ptr null, ptr %6, align 8
  %35 = getelementptr inbounds i8, ptr %1, i64 40
  %36 = load ptr, ptr %35, align 8
  %37 = getelementptr inbounds i8, ptr %0, i64 16
  store ptr %36, ptr %37, align 8
  %.not.i16.i = icmp eq ptr %36, null
  br i1 %.not.i16.i, label %40, label %38

38:                                               ; preds = %33
  %39 = getelementptr inbounds i8, ptr %36, i64 8
  store ptr %0, ptr %39, align 8
  br label %40

40:                                               ; preds = %38, %33
  store ptr %0, ptr %35, align 8
  %41 = load ptr, ptr %34, align 8
  %.not8.i17.i = icmp eq ptr %41, null
  br i1 %.not8.i17.i, label %_ZN6V3ListI9DfgVertexXadL_ZNS0_5linksEvEE8DfgConstE8linkBackEPKS1_.exit.sink.split.i, label %42

_ZN6V3ListI9DfgVertexXadL_ZNS0_5linksEvEE8DfgConstE8linkBackEPKS1_.exit.sink.split.i: ; preds = %40, %31, %21
  %.sink.i = phi ptr [ %15, %21 ], [ %1, %31 ], [ %34, %40 ]
  store ptr %0, ptr %.sink.i, align 8
  br label %42

42:                                               ; preds = %_ZN6V3ListI9DfgVertexXadL_ZNS0_5linksEvEE8DfgConstE8linkBackEPKS1_.exit.sink.split.i, %40, %31, %21
  store i32 0, ptr %10, align 4
  %43 = getelementptr inbounds i8, ptr %0, i64 48
  store ptr %1, ptr %43, align 8
  ret void
}